; Function Attrs: mustprogress uwtable
define hidden void @_ZN11aig_manager6mk_andERK7aig_refS2_(ptr dead_on_unwind noalias writable writeonly sret(%class.aig_ref) align 8 captures(none) initializes((0, 16)) %0, ptr noundef nonnull align 8 dereferenceable(8) %1, ptr noundef nonnull readonly align 8 captures(none) dereferenceable(16) %2, ptr noundef nonnull readonly align 8 captures(none) dereferenceable(16) %3) local_unnamed_addr #6 align 2 {
  %5 = load ptr, ptr %1, align 8, !tbaa !16
  %6 = getelementptr inbounds nuw i8, ptr %2, i64 8
  %7 = load ptr, ptr %6, align 8, !tbaa !12
  %8 = getelementptr inbounds nuw i8, ptr %3, i64 8
  %9 = load ptr, ptr %8, align 8, !tbaa !12
  %10 = tail call ptr @_ZN11aig_manager3imp7mk_nodeE7aig_litS1_(ptr noundef nonnull align 8 dereferenceable(680) %5, ptr %7, ptr %9)
  store ptr %1, ptr %0, align 8, !tbaa !3
  %11 = getelementptr inbounds nuw i8, ptr %0, i64 8
  store ptr %10, ptr %11, align 8, !tbaa !12
  %12 = ptrtoint ptr %10 to i64
  %13 = and i64 %12, -2
  %14 = inttoptr i64 %13 to ptr
  %15 = getelementptr inbounds nuw i8, ptr %14, i64 4
  %16 = load i32, ptr %15, align 4, !tbaa !13
  %17 = add i32 %16, 1
  store i32 %17, ptr %15, align 4, !tbaa !13
  ret void
}